target datalayout = "e-m:e-p270:32:32-p271:32:32-p272:64:64-i64:64-i128:128-f80:128-n8:16:32:64-S128"
target triple = "x86_64-pc-linux-gnu"

%struct.GCRef = type { i64 }
%struct.lua_State = type { %struct.GCRef, i8, i8, i8, i8, %struct.MRef, %struct.GCRef, ptr, ptr, %struct.MRef, %struct.MRef, %struct.GCRef, %struct.GCRef, ptr, i32 }
%struct.MRef = type { i64 }
%union.TValue = type { i64 }
%struct.GCfuncC = type { %struct.GCRef, i8, i8, i8, i8, %struct.GCRef, %struct.GCRef, %struct.MRef, ptr, [1 x %union.TValue] }
%struct.GCfuncL = type { %struct.GCRef, i8, i8, i8, i8, %struct.GCRef, %struct.GCRef, %struct.MRef, [1 x %struct.GCRef] }

@lj_err_allmsg = hidden global ptr @.str, align 8
@lj_obj_itypename = external hidden constant [14 x ptr], align 16

; Function Attrs: noinline noreturn nounwind uwtable
define hidden void @lj_err_optype(ptr noundef %0, ptr noundef %1, i32 noundef %2) #6 {
  %4 = alloca ptr, align 8
  %5 = alloca ptr, align 8
  %6 = alloca i32, align 4
  %7 = alloca ptr, align 8
  %8 = alloca ptr, align 8
  %9 = alloca ptr, align 8
  %10 = alloca ptr, align 8
  %11 = alloca ptr, align 8
  %12 = alloca ptr, align 8
  store ptr %0, ptr %4, align 8, !tbaa !18
  store ptr %1, ptr %5, align 8, !tbaa !25
  store i32 %2, ptr %6, align 4, !tbaa !4
  call void @llvm.lifetime.start.p0(i64 8, ptr %7) #15
  %13 = load ptr, ptr %5, align 8, !tbaa !25
  %14 = load i64, ptr %13, align 8, !tbaa !28
  %15 = ashr i64 %14, 47
  %16 = trunc i64 %15 to i32
  %17 = icmp ule i32 %16, -14
  br i1 %17, label %18, label %19

18:                                               ; preds = %3
  br label %25

19:                                               ; preds = %3
  %20 = load ptr, ptr %5, align 8, !tbaa !25
  %21 = load i64, ptr %20, align 8, !tbaa !28
  %22 = ashr i64 %21, 47
  %23 = trunc i64 %22 to i32
  %24 = xor i32 %23, -1
  br label %25

25:                                               ; preds = %19, %18
  %26 = phi i32 [ 13, %18 ], [ %24, %19 ]
  %27 = zext i32 %26 to i64
  %28 = getelementptr inbounds nuw [14 x ptr], ptr @lj_obj_itypename, i64 0, i64 %27
  %29 = load ptr, ptr %28, align 8, !tbaa !50
  store ptr %29, ptr %7, align 8, !tbaa !50
  call void @llvm.lifetime.start.p0(i64 8, ptr %8) #15
  %30 = load ptr, ptr @lj_err_allmsg, align 8, !tbaa !50
  %31 = load i32, ptr %6, align 4, !tbaa !4
  %32 = sext i32 %31 to i64
  %33 = getelementptr inbounds i8, ptr %30, i64 %32
  store ptr %33, ptr %8, align 8, !tbaa !50
  %34 = load ptr, ptr %4, align 8, !tbaa !18
  %35 = getelementptr inbounds nuw %struct.lua_State, ptr %34, i32 0, i32 7
  %36 = load ptr, ptr %35, align 8, !tbaa !24
  %37 = getelementptr inbounds %union.TValue, ptr %36, i64 -2
  %38 = getelementptr inbounds nuw %struct.GCRef, ptr %37, i32 0, i32 0
  %39 = load i64, ptr %38, align 8, !tbaa !28
  %40 = and i64 %39, 140737488355327
  %41 = inttoptr i64 %40 to ptr
  %42 = getelementptr inbounds nuw %struct.GCfuncC, ptr %41, i32 0, i32 3
  %43 = load i8, ptr %42, align 2, !tbaa !28
  %44 = zext i8 %43 to i32
  %45 = icmp eq i32 %44, 0
  br i1 %45, label %46, label %92

46:                                               ; preds = %25
  call void @llvm.lifetime.start.p0(i64 8, ptr %9) #15
  %47 = load ptr, ptr %4, align 8, !tbaa !18
  %48 = getelementptr inbounds nuw %struct.lua_State, ptr %47, i32 0, i32 7
  %49 = load ptr, ptr %48, align 8, !tbaa !24
  %50 = getelementptr inbounds %union.TValue, ptr %49, i64 -2
  %51 = getelementptr inbounds nuw %struct.GCRef, ptr %50, i32 0, i32 0
  %52 = load i64, ptr %51, align 8, !tbaa !28
  %53 = and i64 %52, 140737488355327
  %54 = inttoptr i64 %53 to ptr
  %55 = getelementptr inbounds nuw %struct.GCfuncL, ptr %54, i32 0, i32 7
  %56 = getelementptr inbounds nuw %struct.MRef, ptr %55, i32 0, i32 0
  %57 = load i64, ptr %56, align 8, !tbaa !28
  %58 = inttoptr i64 %57 to ptr
  %59 = getelementptr inbounds i8, ptr %58, i64 -104
  store ptr %59, ptr %9, align 8, !tbaa !81
  call void @llvm.lifetime.start.p0(i64 8, ptr %10) #15
  %60 = load ptr, ptr %4, align 8, !tbaa !18
  %61 = getelementptr inbounds nuw %struct.lua_State, ptr %60, i32 0, i32 13
  %62 = load ptr, ptr %61, align 8, !tbaa !26
  %63 = ptrtoint ptr %62 to i64
  %64 = and i64 %63, -4
  %65 = inttoptr i64 %64 to ptr
  %66 = getelementptr inbounds i8, ptr %65, i64 24
  %67 = getelementptr inbounds nuw %struct.MRef, ptr %66, i32 0, i32 0
  %68 = load i64, ptr %67, align 8, !tbaa !82
  %69 = inttoptr i64 %68 to ptr
  %70 = getelementptr inbounds i32, ptr %69, i64 -1
  store ptr %70, ptr %10, align 8, !tbaa !83
  call void @llvm.lifetime.start.p0(i64 8, ptr %11) #15
  store ptr null, ptr %11, align 8, !tbaa !50
  call void @llvm.lifetime.start.p0(i64 8, ptr %12) #15
  %71 = load ptr, ptr %9, align 8, !tbaa !81
  %72 = load ptr, ptr %10, align 8, !tbaa !83
  %73 = load ptr, ptr %5, align 8, !tbaa !25
  %74 = load ptr, ptr %4, align 8, !tbaa !18
  %75 = getelementptr inbounds nuw %struct.lua_State, ptr %74, i32 0, i32 7
  %76 = load ptr, ptr %75, align 8, !tbaa !24
  %77 = ptrtoint ptr %73 to i64
  %78 = ptrtoint ptr %76 to i64
  %79 = sub i64 %77, %78
  %80 = sdiv exact i64 %79, 8
  %81 = trunc i64 %80 to i32
  %82 = call ptr @lj_debug_slotname(ptr noundef %71, ptr noundef %72, i32 noundef %81, ptr noundef %11)
  store ptr %82, ptr %12, align 8, !tbaa !50
  %83 = load ptr, ptr %12, align 8, !tbaa !50
  %84 = icmp ne ptr %83, null
  br i1 %84, label %85, label %91

85:                                               ; preds = %46
  %86 = load ptr, ptr %4, align 8, !tbaa !18
  %87 = load ptr, ptr %8, align 8, !tbaa !50
  %88 = load ptr, ptr %12, align 8, !tbaa !50
  %89 = load ptr, ptr %11, align 8, !tbaa !50
  %90 = load ptr, ptr %7, align 8, !tbaa !50
  call void (ptr, i32, ...) @err_msgv(ptr noundef %86, i32 noundef 241, ptr noundef %87, ptr noundef %88, ptr noundef %89, ptr noundef %90) #18
  unreachable

91:                                               ; preds = %46
  call void @llvm.lifetime.end.p0(i64 8, ptr %12) #15
  call void @llvm.lifetime.end.p0(i64 8, ptr %11) #15
  call void @llvm.lifetime.end.p0(i64 8, ptr %10) #15
  call void @llvm.lifetime.end.p0(i64 8, ptr %9) #15
  br label %92

92:                                               ; preds = %91, %25
  %93 = load ptr, ptr %4, align 8, !tbaa !18
  %94 = load ptr, ptr %8, align 8, !tbaa !50
  %95 = load ptr, ptr %7, align 8, !tbaa !50
  call void (ptr, i32, ...) @err_msgv(ptr noundef %93, i32 noundef 276, ptr noundef %94, ptr noundef %95) #18
  unreachable
}