; Function Attrs: noinline noreturn nounwind uwtable
define hidden void @lj_err_optype(ptr noundef %0, ptr noundef %1, i32 noundef %2) local_unnamed_addr #5 {
  %4 = alloca ptr, align 8
  %5 = load i64, ptr %1, align 8, !tbaa !18
  %6 = ashr i64 %5, 47
  %7 = tail call i64 @llvm.umax.i64(i64 %6, i64 -14)
  %spec.select = xor i64 %7, -1
  %8 = getelementptr inbounds nuw [14 x ptr], ptr @lj_obj_itypename, i64 0, i64 %spec.select
  %9 = load ptr, ptr %8, align 8, !tbaa !36
  %10 = load ptr, ptr @lj_err_allmsg, align 8, !tbaa !36
  %11 = sext i32 %2 to i64
  %12 = getelementptr inbounds i8, ptr %10, i64 %11
  %13 = getelementptr inbounds nuw i8, ptr %0, i64 32
  %14 = load ptr, ptr %13, align 8, !tbaa !15
  %15 = getelementptr inbounds i8, ptr %14, i64 -16
  %16 = load i64, ptr %15, align 8, !tbaa !18
  %17 = and i64 %16, 140737488355327
  %18 = inttoptr i64 %17 to ptr
  %19 = getelementptr inbounds nuw i8, ptr %18, i64 10
  %20 = load i8, ptr %19, align 2, !tbaa !18
  %21 = icmp eq i8 %20, 0
  br i1 %21, label %22, label %45

22:                                               ; preds = %3
  %23 = getelementptr inbounds nuw i8, ptr %18, i64 32
  %24 = load i64, ptr %23, align 8, !tbaa !18
  %25 = inttoptr i64 %24 to ptr
  %26 = getelementptr inbounds i8, ptr %25, i64 -104
  %27 = getelementptr inbounds nuw i8, ptr %0, i64 80
  %28 = load ptr, ptr %27, align 8, !tbaa !9
  %29 = ptrtoint ptr %28 to i64
  %30 = and i64 %29, -4
  %31 = inttoptr i64 %30 to ptr
  %32 = getelementptr inbounds nuw i8, ptr %31, i64 24
  %33 = load i64, ptr %32, align 8, !tbaa !67
  %34 = inttoptr i64 %33 to ptr
  %35 = getelementptr inbounds i8, ptr %34, i64 -4
  call void @llvm.lifetime.start.p0(i64 8, ptr nonnull %4) #15
  store ptr null, ptr %4, align 8, !tbaa !36
  %36 = ptrtoint ptr %1 to i64
  %37 = ptrtoint ptr %14 to i64
  %38 = sub i64 %36, %37
  %39 = lshr exact i64 %38, 3
  %40 = trunc i64 %39 to i32
  %41 = call ptr @lj_debug_slotname(ptr noundef nonnull %26, ptr noundef nonnull %35, i32 noundef %40, ptr noundef nonnull %4) #15
  %.not = icmp eq ptr %41, null
  br i1 %.not, label %44, label %42

42:                                               ; preds = %22
  %43 = load ptr, ptr %4, align 8, !tbaa !36
  call void (ptr, i32, ...) @err_msgv(ptr noundef nonnull %0, i32 noundef 241, ptr noundef %12, ptr noundef nonnull %41, ptr noundef %43, ptr noundef %9) #19
  unreachable

44:                                               ; preds = %22
  call void @llvm.lifetime.end.p0(i64 8, ptr nonnull %4) #15
  br label %45

45:                                               ; preds = %44, %3
  call void (ptr, i32, ...) @err_msgv(ptr noundef nonnull %0, i32 noundef 276, ptr noundef %12, ptr noundef %9) #19
  unreachable
}